; Function Attrs: nounwind uwtable
define dso_local noundef ptr @parse_analyze_varparams(ptr noundef readonly captures(none) %0, ptr noundef %1, ptr noundef %2, ptr noundef %3, ptr noundef %4) local_unnamed_addr #0 {
  %6 = tail call ptr @make_parsestate(ptr noundef null) #11
  %7 = getelementptr inbounds nuw i8, ptr %6, i64 8
  store ptr %1, ptr %7, align 8
  tail call void @setup_parse_variable_parameters(ptr noundef %6, ptr noundef %2, ptr noundef %3) #11
  %8 = getelementptr inbounds nuw i8, ptr %6, i64 176
  store ptr %4, ptr %8, align 8
  %9 = getelementptr inbounds nuw i8, ptr %0, i64 20
  %10 = load i32, ptr %9, align 4
  %11 = getelementptr inbounds nuw i8, ptr %6, i64 20
  store i32 %10, ptr %11, align 4
  %12 = getelementptr inbounds nuw i8, ptr %0, i64 16
  %13 = load i32, ptr %12, align 8
  %14 = getelementptr inbounds nuw i8, ptr %6, i64 16
  store i32 %13, ptr %14, align 8
  %15 = getelementptr inbounds nuw i8, ptr %0, i64 8
  %16 = load ptr, ptr %15, align 8
  %17 = load i32, ptr %16, align 4
  %18 = icmp eq i32 %17, 141
  br i1 %18, label %.preheader.i.preheader.i, label %transformTopLevelStmt.exit

.preheader.i.preheader.i:                         ; preds = %5
  %19 = getelementptr inbounds nuw i8, ptr %16, i64 136
  %20 = load i32, ptr %19, align 8
  %.not17.i7.i = icmp eq i32 %20, 0
  br i1 %.not17.i7.i, label %.critedge.i.i, label %.preheader.i.i

.preheader.i.i:                                   ; preds = %.preheader.i.preheader.i, %.preheader.i.i
  %.01619.i8.i = phi ptr [ %22, %.preheader.i.i ], [ %16, %.preheader.i.preheader.i ]
  %21 = getelementptr inbounds nuw i8, ptr %.01619.i8.i, i64 144
  %22 = load ptr, ptr %21, align 8, !nonnull !4, !noundef !4
  %23 = getelementptr inbounds nuw i8, ptr %22, i64 136
  %24 = load i32, ptr %23, align 8
  %.not17.i.i = icmp eq i32 %24, 0
  br i1 %.not17.i.i, label %.critedge.i.i, label %.preheader.i.i

.critedge.i.i:                                    ; preds = %.preheader.i.i, %.preheader.i.preheader.i
  %.01619.i.lcssa.i = phi ptr [ %16, %.preheader.i.preheader.i ], [ %22, %.preheader.i.i ]
  %25 = getelementptr inbounds nuw i8, ptr %.01619.i.lcssa.i, i64 16
  %26 = load ptr, ptr %25, align 8
  %.not18.i.i = icmp eq ptr %26, null
  br i1 %.not18.i.i, label %transformTopLevelStmt.exit, label %27

27:                                               ; preds = %.critedge.i.i
  %28 = tail call noundef ptr @palloc0(i64 noundef 32) #11
  store i32 241, ptr %28, align 4
  %29 = getelementptr inbounds nuw i8, ptr %28, i64 8
  store ptr %16, ptr %29, align 8
  %30 = load ptr, ptr %25, align 8
  %31 = getelementptr inbounds nuw i8, ptr %28, i64 16
  store ptr %30, ptr %31, align 8
  %32 = getelementptr inbounds nuw i8, ptr %28, i64 24
  store i32 41, ptr %32, align 8
  %33 = getelementptr inbounds nuw i8, ptr %28, i64 28
  store i8 1, ptr %33, align 4
  store ptr null, ptr %25, align 8
  br label %transformTopLevelStmt.exit

transformTopLevelStmt.exit:                       ; preds = %5, %.critedge.i.i, %27
  %.0.i.i = phi ptr [ %16, %5 ], [ %28, %27 ], [ %16, %.critedge.i.i ]
  %34 = tail call ptr @transformStmt(ptr noundef %6, ptr noundef nonnull %.0.i.i)
  tail call void @check_variable_parameters(ptr noundef %6, ptr noundef %34) #11
  %35 = load i32, ptr @compute_query_id, align 4
  switch i32 %35, label %IsQueryIdEnabled.exit [
    i32 0, label %IsQueryIdEnabled.exit.thread20
    i32 1, label %IsQueryIdEnabled.exit.thread
  ]

IsQueryIdEnabled.exit:                            ; preds = %transformTopLevelStmt.exit
  %36 = load i8, ptr @query_id_enabled, align 1, !range !5, !noundef !4
  %37 = trunc nuw i8 %36 to i1
  br i1 %37, label %IsQueryIdEnabled.exit.thread, label %IsQueryIdEnabled.exit.thread20

IsQueryIdEnabled.exit.thread:                     ; preds = %transformTopLevelStmt.exit, %IsQueryIdEnabled.exit
  %38 = tail call ptr @JumbleQuery(ptr noundef %34) #11
  br label %IsQueryIdEnabled.exit.thread20

IsQueryIdEnabled.exit.thread20:                   ; preds = %transformTopLevelStmt.exit, %IsQueryIdEnabled.exit.thread, %IsQueryIdEnabled.exit
  %.0 = phi ptr [ %38, %IsQueryIdEnabled.exit.thread ], [ null, %IsQueryIdEnabled.exit ], [ null, %transformTopLevelStmt.exit ]
  %39 = load ptr, ptr @post_parse_analyze_hook, align 8
  %.not = icmp eq ptr %39, null
  br i1 %.not, label %41, label %40

40:                                               ; preds = %IsQueryIdEnabled.exit.thread20
  tail call void %39(ptr noundef %6, ptr noundef %34, ptr noundef %.0) #11
  br label %41

41:                                               ; preds = %40, %IsQueryIdEnabled.exit.thread20
  tail call void @free_parsestate(ptr noundef %6) #11
  %42 = getelementptr inbounds nuw i8, ptr %34, i64 16
  %43 = load i64, ptr %42, align 8
  tail call void @pgstat_report_query_id(i64 noundef %43, i1 noundef zeroext false) #11
  ret ptr %34
}